target datalayout = "e-m:e-p270:32:32-p271:32:32-p272:64:64-i64:64-i128:128-f80:128-n8:16:32:64-S128"
target triple = "x86_64-pc-linux-gnu"

@glad_glAttachShader = global ptr null, align 8
@glad_glBindAttribLocation = global ptr null, align 8
@glad_glCreateProgram = global ptr null, align 8
@glad_glDeleteProgram = global ptr null, align 8
@glad_glGetProgramInfoLog = global ptr null, align 8
@glad_glGetProgramiv = global ptr null, align 8
@glad_glLinkProgram = global ptr null, align 8
@.str.72 = private unnamed_addr constant [15 x i8] c"vertexPosition\00", align 1
@.str.73 = private unnamed_addr constant [15 x i8] c"vertexTexCoord\00", align 1
@.str.74 = private unnamed_addr constant [13 x i8] c"vertexNormal\00", align 1
@.str.75 = private unnamed_addr constant [12 x i8] c"vertexColor\00", align 1
@.str.76 = private unnamed_addr constant [14 x i8] c"vertexTangent\00", align 1
@.str.77 = private unnamed_addr constant [16 x i8] c"vertexTexCoord2\00", align 1
@.str.78 = private unnamed_addr constant [18 x i8] c"instanceTransform\00", align 1
@.str.79 = private unnamed_addr constant [14 x i8] c"vertexBoneIds\00", align 1
@.str.80 = private unnamed_addr constant [18 x i8] c"vertexBoneWeights\00", align 1
@.str.81 = private unnamed_addr constant [46 x i8] c"SHADER: [ID %i] Failed to link shader program\00", align 1
@.str.82 = private unnamed_addr constant [31 x i8] c"SHADER: [ID %i] Link error: %s\00", align 1
@.str.83 = private unnamed_addr constant [51 x i8] c"SHADER: [ID %i] Program shader loaded successfully\00", align 1

; Function Attrs: nounwind uwtable
define i32 @rlLoadShaderProgram(i32 noundef %0, i32 noundef %1) #0 {
  %3 = alloca i32, align 4
  %4 = alloca i32, align 4
  %5 = alloca i32, align 4
  %6 = alloca i32, align 4
  %7 = alloca i32, align 4
  %8 = alloca i32, align 4
  %9 = alloca ptr, align 8
  store i32 %0, ptr %3, align 4
  store i32 %1, ptr %4, align 4
  call void @llvm.lifetime.start.p0(i64 4, ptr %5) #16
  store i32 0, ptr %5, align 4
  call void @llvm.lifetime.start.p0(i64 4, ptr %6) #16
  store i32 0, ptr %6, align 4
  %10 = load ptr, ptr @glad_glCreateProgram, align 8
  %11 = call i32 %10()
  store i32 %11, ptr %5, align 4
  %12 = load ptr, ptr @glad_glAttachShader, align 8
  %13 = load i32, ptr %5, align 4
  %14 = load i32, ptr %3, align 4
  call void %12(i32 noundef %13, i32 noundef %14)
  %15 = load ptr, ptr @glad_glAttachShader, align 8
  %16 = load i32, ptr %5, align 4
  %17 = load i32, ptr %4, align 4
  call void %15(i32 noundef %16, i32 noundef %17)
  %18 = load ptr, ptr @glad_glBindAttribLocation, align 8
  %19 = load i32, ptr %5, align 4
  call void %18(i32 noundef %19, i32 noundef 0, ptr noundef @.str.72)
  %20 = load ptr, ptr @glad_glBindAttribLocation, align 8
  %21 = load i32, ptr %5, align 4
  call void %20(i32 noundef %21, i32 noundef 1, ptr noundef @.str.73)
  %22 = load ptr, ptr @glad_glBindAttribLocation, align 8
  %23 = load i32, ptr %5, align 4
  call void %22(i32 noundef %23, i32 noundef 2, ptr noundef @.str.74)
  %24 = load ptr, ptr @glad_glBindAttribLocation, align 8
  %25 = load i32, ptr %5, align 4
  call void %24(i32 noundef %25, i32 noundef 3, ptr noundef @.str.75)
  %26 = load ptr, ptr @glad_glBindAttribLocation, align 8
  %27 = load i32, ptr %5, align 4
  call void %26(i32 noundef %27, i32 noundef 4, ptr noundef @.str.76)
  %28 = load ptr, ptr @glad_glBindAttribLocation, align 8
  %29 = load i32, ptr %5, align 4
  call void %28(i32 noundef %29, i32 noundef 5, ptr noundef @.str.77)
  %30 = load ptr, ptr @glad_glBindAttribLocation, align 8
  %31 = load i32, ptr %5, align 4
  call void %30(i32 noundef %31, i32 noundef 9, ptr noundef @.str.78)
  %32 = load ptr, ptr @glad_glBindAttribLocation, align 8
  %33 = load i32, ptr %5, align 4
  call void %32(i32 noundef %33, i32 noundef 7, ptr noundef @.str.79)
  %34 = load ptr, ptr @glad_glBindAttribLocation, align 8
  %35 = load i32, ptr %5, align 4
  call void %34(i32 noundef %35, i32 noundef 8, ptr noundef @.str.80)
  %36 = load ptr, ptr @glad_glLinkProgram, align 8
  %37 = load i32, ptr %5, align 4
  call void %36(i32 noundef %37)
  %38 = load ptr, ptr @glad_glGetProgramiv, align 8
  %39 = load i32, ptr %5, align 4
  call void %38(i32 noundef %39, i32 noundef 35714, ptr noundef %6)
  %40 = load i32, ptr %6, align 4
  %41 = icmp eq i32 %40, 0
  br i1 %41, label %42, label %62

42:                                               ; preds = %2
  %43 = load i32, ptr %5, align 4
  call void (i32, ptr, ...) @TraceLog(i32 noundef 4, ptr noundef @.str.81, i32 noundef %43)
  call void @llvm.lifetime.start.p0(i64 4, ptr %7) #16
  store i32 0, ptr %7, align 4
  %44 = load ptr, ptr @glad_glGetProgramiv, align 8
  %45 = load i32, ptr %5, align 4
  call void %44(i32 noundef %45, i32 noundef 35716, ptr noundef %7)
  %46 = load i32, ptr %7, align 4
  %47 = icmp sgt i32 %46, 0
  br i1 %47, label %48, label %59

48:                                               ; preds = %42
  call void @llvm.lifetime.start.p0(i64 4, ptr %8) #16
  store i32 0, ptr %8, align 4
  call void @llvm.lifetime.start.p0(i64 8, ptr %9) #16
  %49 = load i32, ptr %7, align 4
  %50 = sext i32 %49 to i64
  %51 = call noalias ptr @calloc(i64 noundef %50, i64 noundef 1) #18
  store ptr %51, ptr %9, align 8
  %52 = load ptr, ptr @glad_glGetProgramInfoLog, align 8
  %53 = load i32, ptr %5, align 4
  %54 = load i32, ptr %7, align 4
  %55 = load ptr, ptr %9, align 8
  call void %52(i32 noundef %53, i32 noundef %54, ptr noundef %8, ptr noundef %55)
  %56 = load i32, ptr %5, align 4
  %57 = load ptr, ptr %9, align 8
  call void (i32, ptr, ...) @TraceLog(i32 noundef 4, ptr noundef @.str.82, i32 noundef %56, ptr noundef %57)
  %58 = load ptr, ptr %9, align 8
  call void @free(ptr noundef %58) #16
  call void @llvm.lifetime.end.p0(i64 8, ptr %9) #16
  call void @llvm.lifetime.end.p0(i64 4, ptr %8) #16
  br label %59

59:                                               ; preds = %48, %42
  %60 = load ptr, ptr @glad_glDeleteProgram, align 8
  %61 = load i32, ptr %5, align 4
  call void %60(i32 noundef %61)
  store i32 0, ptr %5, align 4
  call void @llvm.lifetime.end.p0(i64 4, ptr %7) #16
  br label %64

62:                                               ; preds = %2
  %63 = load i32, ptr %5, align 4
  call void (i32, ptr, ...) @TraceLog(i32 noundef 3, ptr noundef @.str.83, i32 noundef %63)
  br label %64

64:                                               ; preds = %62, %59
  %65 = load i32, ptr %5, align 4
  call void @llvm.lifetime.end.p0(i64 4, ptr %6) #16
  call void @llvm.lifetime.end.p0(i64 4, ptr %5) #16
  ret i32 %65
}