; Function Attrs: nounwind uwtable
define noundef i32 @rlLoadShaderProgram(i32 noundef %0, i32 noundef %1) local_unnamed_addr #0 {
  %3 = alloca i32, align 4
  %4 = alloca i32, align 4
  %5 = alloca i32, align 4
  call void @llvm.lifetime.start.p0(i64 4, ptr nonnull %3) #56
  store i32 0, ptr %3, align 4
  %6 = load ptr, ptr @glad_glCreateProgram, align 8
  %7 = tail call i32 %6() #56
  %8 = load ptr, ptr @glad_glAttachShader, align 8
  tail call void %8(i32 noundef %7, i32 noundef %0) #56
  %9 = load ptr, ptr @glad_glAttachShader, align 8
  tail call void %9(i32 noundef %7, i32 noundef %1) #56
  %10 = load ptr, ptr @glad_glBindAttribLocation, align 8
  tail call void %10(i32 noundef %7, i32 noundef 0, ptr noundef nonnull @.str.72) #56
  %11 = load ptr, ptr @glad_glBindAttribLocation, align 8
  tail call void %11(i32 noundef %7, i32 noundef 1, ptr noundef nonnull @.str.73) #56
  %12 = load ptr, ptr @glad_glBindAttribLocation, align 8
  tail call void %12(i32 noundef %7, i32 noundef 2, ptr noundef nonnull @.str.74) #56
  %13 = load ptr, ptr @glad_glBindAttribLocation, align 8
  tail call void %13(i32 noundef %7, i32 noundef 3, ptr noundef nonnull @.str.75) #56
  %14 = load ptr, ptr @glad_glBindAttribLocation, align 8
  tail call void %14(i32 noundef %7, i32 noundef 4, ptr noundef nonnull @.str.76) #56
  %15 = load ptr, ptr @glad_glBindAttribLocation, align 8
  tail call void %15(i32 noundef %7, i32 noundef 5, ptr noundef nonnull @.str.77) #56
  %16 = load ptr, ptr @glad_glBindAttribLocation, align 8
  tail call void %16(i32 noundef %7, i32 noundef 9, ptr noundef nonnull @.str.78) #56
  %17 = load ptr, ptr @glad_glBindAttribLocation, align 8
  tail call void %17(i32 noundef %7, i32 noundef 7, ptr noundef nonnull @.str.79) #56
  %18 = load ptr, ptr @glad_glBindAttribLocation, align 8
  tail call void %18(i32 noundef %7, i32 noundef 8, ptr noundef nonnull @.str.80) #56
  %19 = load ptr, ptr @glad_glLinkProgram, align 8
  tail call void %19(i32 noundef %7) #56
  %20 = load ptr, ptr @glad_glGetProgramiv, align 8
  call void %20(i32 noundef %7, i32 noundef 35714, ptr noundef nonnull %3) #56
  %21 = load i32, ptr %3, align 4
  %22 = icmp eq i32 %21, 0
  br i1 %22, label %23, label %33

23:                                               ; preds = %2
  call void (i32, ptr, ...) @TraceLog(i32 noundef 4, ptr noundef nonnull @.str.81, i32 noundef %7) #56
  call void @llvm.lifetime.start.p0(i64 4, ptr nonnull %4) #56
  store i32 0, ptr %4, align 4
  %24 = load ptr, ptr @glad_glGetProgramiv, align 8
  call void %24(i32 noundef %7, i32 noundef 35716, ptr noundef nonnull %4) #56
  %25 = load i32, ptr %4, align 4
  %26 = icmp sgt i32 %25, 0
  br i1 %26, label %27, label %31

27:                                               ; preds = %23
  call void @llvm.lifetime.start.p0(i64 4, ptr nonnull %5) #56
  store i32 0, ptr %5, align 4
  %28 = zext nneg i32 %25 to i64
  %29 = call noalias ptr @calloc(i64 noundef %28, i64 noundef 1) #59
  %30 = load ptr, ptr @glad_glGetProgramInfoLog, align 8
  call void %30(i32 noundef %7, i32 noundef %25, ptr noundef nonnull %5, ptr noundef %29) #56
  call void (i32, ptr, ...) @TraceLog(i32 noundef 4, ptr noundef nonnull @.str.82, i32 noundef %7, ptr noundef %29) #56
  call void @free(ptr noundef %29) #56
  call void @llvm.lifetime.end.p0(i64 4, ptr nonnull %5) #56
  br label %31

31:                                               ; preds = %27, %23
  %32 = load ptr, ptr @glad_glDeleteProgram, align 8
  call void %32(i32 noundef %7) #56
  call void @llvm.lifetime.end.p0(i64 4, ptr nonnull %4) #56
  br label %34

33:                                               ; preds = %2
  call void (i32, ptr, ...) @TraceLog(i32 noundef 3, ptr noundef nonnull @.str.83, i32 noundef %7) #56
  br label %34

34:                                               ; preds = %33, %31
  %.0 = phi i32 [ 0, %31 ], [ %7, %33 ]
  call void @llvm.lifetime.end.p0(i64 4, ptr nonnull %3) #56
  ret i32 %.0
}